; Function Attrs: nounwind uwtable
define internal range(i32 -12, 1) i32 @resize_samples_u8p(ptr noundef %0, i64 noundef %1) #1 {
  %3 = load i64, ptr %0, align 8, !tbaa !46
  %4 = icmp eq i64 %1, %3
  br i1 %4, label %54, label %5

5:                                                ; preds = %2
  %6 = icmp eq i64 %1, 0
  %7 = getelementptr inbounds nuw i8, ptr %0, i64 32
  br i1 %6, label %8, label %9

8:                                                ; preds = %5
  tail call void @av_freep(ptr noundef nonnull %7) #10
  tail call void @llvm.memset.p0.i64(ptr noundef nonnull align 8 dereferenceable(28) %0, i8 0, i64 28, i1 false)
  br label %54

9:                                                ; preds = %5
  %10 = getelementptr inbounds nuw i8, ptr %0, i64 24
  %11 = load ptr, ptr %7, align 8, !tbaa !75
  %12 = tail call ptr @av_fast_realloc(ptr noundef %11, ptr noundef nonnull %10, i64 noundef %1) #10
  %.not = icmp eq ptr %12, null
  br i1 %.not, label %54, label %13

13:                                               ; preds = %9
  %14 = load i64, ptr %0, align 8, !tbaa !46
  %15 = icmp slt i64 %1, %14
  br i1 %15, label %16, label %36

16:                                               ; preds = %13
  %17 = getelementptr inbounds nuw i8, ptr %0, i64 16
  %18 = load i64, ptr %17, align 8, !tbaa !80
  %19 = icmp ugt i64 %18, %1
  br i1 %19, label %20, label %24

20:                                               ; preds = %16
  %21 = sub nuw i64 %18, %1
  store i64 %21, ptr %17, align 8, !tbaa !80
  %22 = getelementptr inbounds i8, ptr %12, i64 %1
  tail call void @llvm.memmove.p0.p0.i64(ptr nonnull align 1 %12, ptr nonnull align 1 %22, i64 %21, i1 false)
  %23 = getelementptr inbounds nuw i8, ptr %0, i64 8
  store i64 %1, ptr %23, align 8, !tbaa !79
  br label %53

24:                                               ; preds = %16
  %25 = getelementptr inbounds nuw i8, ptr %0, i64 8
  %26 = load i64, ptr %25, align 8, !tbaa !79
  %27 = icmp ugt i64 %26, %18
  br i1 %27, label %28, label %53

28:                                               ; preds = %24
  %29 = getelementptr i8, ptr %12, i64 %18
  %30 = sub nsw i64 %14, %1
  %31 = getelementptr i8, ptr %29, i64 %30
  %32 = sub i64 %1, %18
  tail call void @llvm.memmove.p0.p0.i64(ptr nonnull align 1 %29, ptr align 1 %31, i64 %32, i1 false)
  %33 = load i64, ptr %0, align 8, !tbaa !46
  %.neg = sub i64 %1, %33
  %34 = load i64, ptr %25, align 8, !tbaa !79
  %35 = add i64 %.neg, %34
  store i64 %35, ptr %25, align 8, !tbaa !79
  br label %53

36:                                               ; preds = %13
  %37 = getelementptr inbounds nuw i8, ptr %0, i64 8
  %38 = load i64, ptr %37, align 8, !tbaa !79
  %.not68 = icmp ult i64 %38, %14
  br i1 %.not68, label %46, label %39

39:                                               ; preds = %36
  %40 = getelementptr inbounds nuw i8, ptr %0, i64 16
  %41 = load i64, ptr %40, align 8, !tbaa !80
  %42 = sub i64 %14, %41
  %43 = sub nsw i64 %1, %14
  %44 = getelementptr i8, ptr %12, i64 %41
  %45 = getelementptr i8, ptr %44, i64 %43
  tail call void @llvm.memmove.p0.p0.i64(ptr align 1 %45, ptr nonnull align 1 %44, i64 %42, i1 false)
  %.pre = load i64, ptr %0, align 8, !tbaa !46
  %.pre71 = sub nsw i64 %1, %.pre
  br label %49

46:                                               ; preds = %36
  %47 = sub i64 %1, %14
  %48 = add i64 %47, %38
  br label %49

49:                                               ; preds = %46, %39
  %.pre-phi = phi i64 [ %47, %46 ], [ %.pre71, %39 ]
  %storemerge = phi i64 [ %48, %46 ], [ %1, %39 ]
  store i64 %storemerge, ptr %37, align 8, !tbaa !79
  %50 = getelementptr inbounds nuw i8, ptr %0, i64 16
  %51 = load i64, ptr %50, align 8, !tbaa !80
  %52 = getelementptr inbounds nuw i8, ptr %12, i64 %51
  tail call void @llvm.memset.p0.i64(ptr nonnull align 1 %52, i8 -128, i64 %.pre-phi, i1 false)
  br label %53

53:                                               ; preds = %20, %28, %24, %49
  store i64 %1, ptr %0, align 8, !tbaa !46
  store ptr %12, ptr %7, align 8, !tbaa !75
  br label %54

54:                                               ; preds = %9, %2, %53, %8
  %.0 = phi i32 [ 0, %8 ], [ 0, %53 ], [ 0, %2 ], [ -12, %9 ]
  ret i32 %.0
}